target datalayout = "e-m:e-p270:32:32-p271:32:32-p272:64:64-i64:64-i128:128-f80:128-n8:16:32:64-S128"
target triple = "x86_64-pc-linux-gnu"

%struct.VLCElem = type { %union.anon.0 }
%union.anon.0 = type { %struct.anon }
%struct.anon = type { i16, i16 }
%struct.GetBitContext = type { ptr, ptr, i32, i32, i32 }
%struct.JXLHybridUintConf = type { i32, i32, i32 }
%struct.JXLSymbolDistribution = type { %struct.JXLHybridUintConf, i32, i32, i32, %struct.VLC, i32, [258 x i32], [258 x i16], [258 x i16], [258 x i16], i32 }
%struct.VLC = type { i32, ptr, i32, i32 }

; Function Attrs: inlinehint nounwind willreturn memory(none) uwtable
define internal i32 @zero_extend(i32 noundef %0, i32 noundef %1) #6 {
  %3 = alloca i32, align 4
  %4 = alloca i32, align 4
  store i32 %0, ptr %3, align 4, !tbaa !18
  store i32 %1, ptr %4, align 4, !tbaa !18
  %5 = load i32, ptr %3, align 4, !tbaa !18
  %6 = load i32, ptr %4, align 4, !tbaa !18
  %7 = zext i32 %6 to i64
  %8 = sub i64 32, %7
  %9 = trunc i64 %8 to i32
  %10 = shl i32 %5, %9
  %11 = load i32, ptr %4, align 4, !tbaa !18
  %12 = zext i32 %11 to i64
  %13 = sub i64 32, %12
  %14 = trunc i64 %13 to i32
  %15 = lshr i32 %10, %14
  ret i32 %15
}

; Function Attrs: alwaysinline nounwind uwtable
define internal i32 @get_vlc2(ptr noundef %0, ptr noundef %1, i32 noundef %2, i32 noundef %3) #7 {
  %5 = alloca ptr, align 8
  %6 = alloca ptr, align 8
  %7 = alloca i32, align 4
  %8 = alloca i32, align 4
  %9 = alloca i32, align 4
  %10 = alloca i32, align 4
  %11 = alloca i32, align 4
  %12 = alloca i32, align 4
  %13 = alloca i32, align 4
  %14 = alloca i32, align 4
  %15 = alloca i32, align 4
  store ptr %0, ptr %5, align 8, !tbaa !77
  store ptr %1, ptr %6, align 8, !tbaa !178
  store i32 %2, ptr %7, align 4, !tbaa !18
  store i32 %3, ptr %8, align 4, !tbaa !18
  call void @llvm.lifetime.start.p0(i64 4, ptr %9) #9
  call void @llvm.lifetime.start.p0(i64 4, ptr %10) #9
  %16 = load ptr, ptr %5, align 8, !tbaa !77
  %17 = getelementptr inbounds nuw %struct.GetBitContext, ptr %16, i32 0, i32 2
  %18 = load i32, ptr %17, align 8, !tbaa !79
  store i32 %18, ptr %10, align 4, !tbaa !18
  call void @llvm.lifetime.start.p0(i64 4, ptr %11) #9
  call void @llvm.lifetime.start.p0(i64 4, ptr %12) #9
  %19 = load ptr, ptr %5, align 8, !tbaa !77
  %20 = getelementptr inbounds nuw %struct.GetBitContext, ptr %19, i32 0, i32 4
  %21 = load i32, ptr %20, align 8, !tbaa !81
  store i32 %21, ptr %12, align 4, !tbaa !18
  %22 = load ptr, ptr %5, align 8, !tbaa !77
  %23 = getelementptr inbounds nuw %struct.GetBitContext, ptr %22, i32 0, i32 0
  %24 = load ptr, ptr %23, align 8, !tbaa !85
  %25 = load i32, ptr %10, align 4, !tbaa !18
  %26 = lshr i32 %25, 3
  %27 = zext i32 %26 to i64
  %28 = getelementptr inbounds nuw i8, ptr %24, i64 %27
  %29 = load i32, ptr %28, align 1, !tbaa !43
  %30 = load i32, ptr %10, align 4, !tbaa !18
  %31 = and i32 %30, 7
  %32 = lshr i32 %29, %31
  store i32 %32, ptr %11, align 4, !tbaa !18
  br label %33

33:                                               ; preds = %4
  call void @llvm.lifetime.start.p0(i64 4, ptr %13) #9
  call void @llvm.lifetime.start.p0(i64 4, ptr %14) #9
  call void @llvm.lifetime.start.p0(i64 4, ptr %15) #9
  %34 = load i32, ptr %11, align 4, !tbaa !18
  %35 = load i32, ptr %7, align 4, !tbaa !18
  %36 = call i32 @zero_extend(i32 noundef %34, i32 noundef %35) #10
  store i32 %36, ptr %15, align 4, !tbaa !18
  %37 = load ptr, ptr %6, align 8, !tbaa !178
  %38 = load i32, ptr %15, align 4, !tbaa !18
  %39 = zext i32 %38 to i64
  %40 = getelementptr inbounds nuw %struct.VLCElem, ptr %37, i64 %39
  %41 = getelementptr inbounds nuw %struct.VLCElem, ptr %40, i32 0, i32 0
  %42 = getelementptr inbounds nuw %struct.anon, ptr %41, i32 0, i32 0
  %43 = load i16, ptr %42, align 2, !tbaa !43
  %44 = sext i16 %43 to i32
  store i32 %44, ptr %9, align 4, !tbaa !18
  %45 = load ptr, ptr %6, align 8, !tbaa !178
  %46 = load i32, ptr %15, align 4, !tbaa !18
  %47 = zext i32 %46 to i64
  %48 = getelementptr inbounds nuw %struct.VLCElem, ptr %45, i64 %47
  %49 = getelementptr inbounds nuw %struct.VLCElem, ptr %48, i32 0, i32 0
  %50 = getelementptr inbounds nuw %struct.anon, ptr %49, i32 0, i32 1
  %51 = load i16, ptr %50, align 2, !tbaa !43
  %52 = sext i16 %51 to i32
  store i32 %52, ptr %13, align 4, !tbaa !18
  %53 = load i32, ptr %8, align 4, !tbaa !18
  %54 = icmp sgt i32 %53, 1
  br i1 %54, label %55, label %160

55:                                               ; preds = %33
  %56 = load i32, ptr %13, align 4, !tbaa !18
  %57 = icmp slt i32 %56, 0
  br i1 %57, label %58, label %160

58:                                               ; preds = %55
  %59 = load i32, ptr %12, align 4, !tbaa !18
  %60 = load i32, ptr %10, align 4, !tbaa !18
  %61 = load i32, ptr %7, align 4, !tbaa !18
  %62 = add i32 %60, %61
  %63 = icmp ugt i32 %59, %62
  br i1 %63, label %64, label %68

64:                                               ; preds = %58
  %65 = load i32, ptr %10, align 4, !tbaa !18
  %66 = load i32, ptr %7, align 4, !tbaa !18
  %67 = add i32 %65, %66
  br label %70

68:                                               ; preds = %58
  %69 = load i32, ptr %12, align 4, !tbaa !18
  br label %70

70:                                               ; preds = %68, %64
  %71 = phi i32 [ %67, %64 ], [ %69, %68 ]
  store i32 %71, ptr %10, align 4, !tbaa !18
  %72 = load ptr, ptr %5, align 8, !tbaa !77
  %73 = getelementptr inbounds nuw %struct.GetBitContext, ptr %72, i32 0, i32 0
  %74 = load ptr, ptr %73, align 8, !tbaa !85
  %75 = load i32, ptr %10, align 4, !tbaa !18
  %76 = lshr i32 %75, 3
  %77 = zext i32 %76 to i64
  %78 = getelementptr inbounds nuw i8, ptr %74, i64 %77
  %79 = load i32, ptr %78, align 1, !tbaa !43
  %80 = load i32, ptr %10, align 4, !tbaa !18
  %81 = and i32 %80, 7
  %82 = lshr i32 %79, %81
  store i32 %82, ptr %11, align 4, !tbaa !18
  %83 = load i32, ptr %13, align 4, !tbaa !18
  %84 = sub nsw i32 0, %83
  store i32 %84, ptr %14, align 4, !tbaa !18
  %85 = load i32, ptr %11, align 4, !tbaa !18
  %86 = load i32, ptr %14, align 4, !tbaa !18
  %87 = call i32 @zero_extend(i32 noundef %85, i32 noundef %86) #10
  %88 = load i32, ptr %9, align 4, !tbaa !18
  %89 = add i32 %87, %88
  store i32 %89, ptr %15, align 4, !tbaa !18
  %90 = load ptr, ptr %6, align 8, !tbaa !178
  %91 = load i32, ptr %15, align 4, !tbaa !18
  %92 = zext i32 %91 to i64
  %93 = getelementptr inbounds nuw %struct.VLCElem, ptr %90, i64 %92
  %94 = getelementptr inbounds nuw %struct.VLCElem, ptr %93, i32 0, i32 0
  %95 = getelementptr inbounds nuw %struct.anon, ptr %94, i32 0, i32 0
  %96 = load i16, ptr %95, align 2, !tbaa !43
  %97 = sext i16 %96 to i32
  store i32 %97, ptr %9, align 4, !tbaa !18
  %98 = load ptr, ptr %6, align 8, !tbaa !178
  %99 = load i32, ptr %15, align 4, !tbaa !18
  %100 = zext i32 %99 to i64
  %101 = getelementptr inbounds nuw %struct.VLCElem, ptr %98, i64 %100
  %102 = getelementptr inbounds nuw %struct.VLCElem, ptr %101, i32 0, i32 0
  %103 = getelementptr inbounds nuw %struct.anon, ptr %102, i32 0, i32 1
  %104 = load i16, ptr %103, align 2, !tbaa !43
  %105 = sext i16 %104 to i32
  store i32 %105, ptr %13, align 4, !tbaa !18
  %106 = load i32, ptr %8, align 4, !tbaa !18
  %107 = icmp sgt i32 %106, 2
  br i1 %107, label %108, label %159

108:                                              ; preds = %70
  %109 = load i32, ptr %13, align 4, !tbaa !18
  %110 = icmp slt i32 %109, 0
  br i1 %110, label %111, label %159

111:                                              ; preds = %108
  %112 = load i32, ptr %12, align 4, !tbaa !18
  %113 = load i32, ptr %10, align 4, !tbaa !18
  %114 = load i32, ptr %14, align 4, !tbaa !18
  %115 = add i32 %113, %114
  %116 = icmp ugt i32 %112, %115
  br i1 %116, label %117, label %121

117:                                              ; preds = %111
  %118 = load i32, ptr %10, align 4, !tbaa !18
  %119 = load i32, ptr %14, align 4, !tbaa !18
  %120 = add i32 %118, %119
  br label %123

121:                                              ; preds = %111
  %122 = load i32, ptr %12, align 4, !tbaa !18
  br label %123

123:                                              ; preds = %121, %117
  %124 = phi i32 [ %120, %117 ], [ %122, %121 ]
  store i32 %124, ptr %10, align 4, !tbaa !18
  %125 = load ptr, ptr %5, align 8, !tbaa !77
  %126 = getelementptr inbounds nuw %struct.GetBitContext, ptr %125, i32 0, i32 0
  %127 = load ptr, ptr %126, align 8, !tbaa !85
  %128 = load i32, ptr %10, align 4, !tbaa !18
  %129 = lshr i32 %128, 3
  %130 = zext i32 %129 to i64
  %131 = getelementptr inbounds nuw i8, ptr %127, i64 %130
  %132 = load i32, ptr %131, align 1, !tbaa !43
  %133 = load i32, ptr %10, align 4, !tbaa !18
  %134 = and i32 %133, 7
  %135 = lshr i32 %132, %134
  store i32 %135, ptr %11, align 4, !tbaa !18
  %136 = load i32, ptr %13, align 4, !tbaa !18
  %137 = sub nsw i32 0, %136
  store i32 %137, ptr %14, align 4, !tbaa !18
  %138 = load i32, ptr %11, align 4, !tbaa !18
  %139 = load i32, ptr %14, align 4, !tbaa !18
  %140 = call i32 @zero_extend(i32 noundef %138, i32 noundef %139) #10
  %141 = load i32, ptr %9, align 4, !tbaa !18
  %142 = add i32 %140, %141
  store i32 %142, ptr %15, align 4, !tbaa !18
  %143 = load ptr, ptr %6, align 8, !tbaa !178
  %144 = load i32, ptr %15, align 4, !tbaa !18
  %145 = zext i32 %144 to i64
  %146 = getelementptr inbounds nuw %struct.VLCElem, ptr %143, i64 %145
  %147 = getelementptr inbounds nuw %struct.VLCElem, ptr %146, i32 0, i32 0
  %148 = getelementptr inbounds nuw %struct.anon, ptr %147, i32 0, i32 0
  %149 = load i16, ptr %148, align 2, !tbaa !43
  %150 = sext i16 %149 to i32
  store i32 %150, ptr %9, align 4, !tbaa !18
  %151 = load ptr, ptr %6, align 8, !tbaa !178
  %152 = load i32, ptr %15, align 4, !tbaa !18
  %153 = zext i32 %152 to i64
  %154 = getelementptr inbounds nuw %struct.VLCElem, ptr %151, i64 %153
  %155 = getelementptr inbounds nuw %struct.VLCElem, ptr %154, i32 0, i32 0
  %156 = getelementptr inbounds nuw %struct.anon, ptr %155, i32 0, i32 1
  %157 = load i16, ptr %156, align 2, !tbaa !43
  %158 = sext i16 %157 to i32
  store i32 %158, ptr %13, align 4, !tbaa !18
  br label %159

159:                                              ; preds = %123, %108, %70
  br label %160

160:                                              ; preds = %159, %55, %33
  br label %161

161:                                              ; preds = %160
  %162 = load i32, ptr %13, align 4, !tbaa !18
  %163 = load i32, ptr %11, align 4, !tbaa !18
  %164 = lshr i32 %163, %162
  store i32 %164, ptr %11, align 4, !tbaa !18
  %165 = load i32, ptr %12, align 4, !tbaa !18
  %166 = load i32, ptr %10, align 4, !tbaa !18
  %167 = load i32, ptr %13, align 4, !tbaa !18
  %168 = add i32 %166, %167
  %169 = icmp ugt i32 %165, %168
  br i1 %169, label %170, label %174

170:                                              ; preds = %161
  %171 = load i32, ptr %10, align 4, !tbaa !18
  %172 = load i32, ptr %13, align 4, !tbaa !18
  %173 = add i32 %171, %172
  br label %176

174:                                              ; preds = %161
  %175 = load i32, ptr %12, align 4, !tbaa !18
  br label %176

176:                                              ; preds = %174, %170
  %177 = phi i32 [ %173, %170 ], [ %175, %174 ]
  store i32 %177, ptr %10, align 4, !tbaa !18
  br label %178

178:                                              ; preds = %176
  br label %179

179:                                              ; preds = %178
  call void @llvm.lifetime.end.p0(i64 4, ptr %15) #9
  call void @llvm.lifetime.end.p0(i64 4, ptr %14) #9
  call void @llvm.lifetime.end.p0(i64 4, ptr %13) #9
  br label %180

180:                                              ; preds = %179
  br label %181

181:                                              ; preds = %180
  %182 = load i32, ptr %10, align 4, !tbaa !18
  %183 = load ptr, ptr %5, align 8, !tbaa !77
  %184 = getelementptr inbounds nuw %struct.GetBitContext, ptr %183, i32 0, i32 2
  store i32 %182, ptr %184, align 8, !tbaa !79
  %185 = load i32, ptr %9, align 4, !tbaa !18
  call void @llvm.lifetime.end.p0(i64 4, ptr %12) #9
  call void @llvm.lifetime.end.p0(i64 4, ptr %11) #9
  call void @llvm.lifetime.end.p0(i64 4, ptr %10) #9
  call void @llvm.lifetime.end.p0(i64 4, ptr %9) #9
  ret i32 %185
}

; Function Attrs: inlinehint nounwind uwtable
define internal i32 @read_prefix_symbol(ptr noundef %0, ptr noundef %1) #4 {
  %3 = alloca i32, align 4
  %4 = alloca ptr, align 8
  %5 = alloca ptr, align 8
  store ptr %0, ptr %4, align 8, !tbaa !77
  store ptr %1, ptr %5, align 8, !tbaa !126
  %6 = load ptr, ptr %5, align 8, !tbaa !126
  %7 = getelementptr inbounds nuw %struct.JXLSymbolDistribution, ptr %6, i32 0, i32 4
  %8 = getelementptr inbounds nuw %struct.VLC, ptr %7, i32 0, i32 0
  %9 = load i32, ptr %8, align 8, !tbaa !150
  %10 = icmp ne i32 %9, 0
  br i1 %10, label %15, label %11

11:                                               ; preds = %2
  %12 = load ptr, ptr %5, align 8, !tbaa !126
  %13 = getelementptr inbounds nuw %struct.JXLSymbolDistribution, ptr %12, i32 0, i32 5
  %14 = load i32, ptr %13, align 8, !tbaa !151
  store i32 %14, ptr %3, align 4
  br label %26

15:                                               ; preds = %2
  %16 = load ptr, ptr %4, align 8, !tbaa !77
  %17 = load ptr, ptr %5, align 8, !tbaa !126
  %18 = getelementptr inbounds nuw %struct.JXLSymbolDistribution, ptr %17, i32 0, i32 4
  %19 = getelementptr inbounds nuw %struct.VLC, ptr %18, i32 0, i32 1
  %20 = load ptr, ptr %19, align 8, !tbaa !177
  %21 = load ptr, ptr %5, align 8, !tbaa !126
  %22 = getelementptr inbounds nuw %struct.JXLSymbolDistribution, ptr %21, i32 0, i32 4
  %23 = getelementptr inbounds nuw %struct.VLC, ptr %22, i32 0, i32 0
  %24 = load i32, ptr %23, align 8, !tbaa !150
  %25 = call i32 @get_vlc2(ptr noundef %16, ptr noundef %20, i32 noundef %24, i32 noundef 1)
  store i32 %25, ptr %3, align 4
  br label %26

26:                                               ; preds = %15, %11
  %27 = load i32, ptr %3, align 4
  ret i32 %27
}