; Function Attrs: inlinehint mustprogress nofree norecurse nosync nounwind willreturn memory(read, argmem: readwrite, inaccessiblemem: none) uwtable
define internal fastcc i32 @read_prefix_symbol(ptr noundef nonnull captures(none) %0, ptr noundef readonly captures(none) %1) unnamed_addr #7 {
  %3 = getelementptr inbounds nuw i8, ptr %1, i64 24
  %4 = load i32, ptr %3, align 8, !tbaa !120
  %.not = icmp eq i32 %4, 0
  br i1 %.not, label %5, label %8

5:                                                ; preds = %2
  %6 = getelementptr inbounds nuw i8, ptr %1, i64 48
  %7 = load i32, ptr %6, align 8, !tbaa !121
  br label %34

8:                                                ; preds = %2
  %9 = getelementptr inbounds nuw i8, ptr %1, i64 32
  %10 = load ptr, ptr %9, align 8, !tbaa !150
  %11 = load ptr, ptr %0, align 8, !tbaa !60
  %12 = getelementptr inbounds nuw i8, ptr %0, i64 16
  %13 = load i32, ptr %12, align 8, !tbaa !65
  %14 = lshr i32 %13, 3
  %15 = zext nneg i32 %14 to i64
  %16 = getelementptr inbounds nuw i8, ptr %11, i64 %15
  %17 = load i32, ptr %16, align 1, !tbaa !28
  %18 = and i32 %13, 7
  %19 = lshr i32 %17, %18
  %20 = sub i32 32, %4
  %21 = lshr i32 -1, %20
  %22 = and i32 %19, %21
  %23 = zext i32 %22 to i64
  %24 = getelementptr inbounds nuw %struct.VLCElem, ptr %10, i64 %23
  %25 = getelementptr inbounds nuw i8, ptr %24, i64 2
  %26 = load i16, ptr %25, align 2, !tbaa !28
  %27 = sext i16 %26 to i32
  %28 = load i16, ptr %24, align 2, !tbaa !28
  %29 = sext i16 %28 to i32
  %30 = getelementptr inbounds nuw i8, ptr %0, i64 24
  %31 = load i32, ptr %30, align 8, !tbaa !63
  %32 = add i32 %13, %27
  %33 = tail call i32 @llvm.umin.i32(i32 %31, i32 %32)
  store i32 %33, ptr %12, align 8, !tbaa !65
  br label %34

34:                                               ; preds = %8, %5
  %.0 = phi i32 [ %29, %8 ], [ %7, %5 ]
  ret i32 %.0
}